target datalayout = "e-m:e-p270:32:32-p271:32:32-p272:64:64-i64:64-i128:128-f80:128-n8:16:32:64-S128"
target triple = "x86_64-pc-linux-gnu"

%struct.ident_t = type { i32, i32, i32, i32, ptr }
%"class.std::function" = type { %"class.std::_Function_base", ptr }
%"class.std::_Function_base" = type { %"union.std::_Any_data", ptr }
%"union.std::_Any_data" = type { %"union.std::_Nocopy_types" }
%"union.std::_Nocopy_types" = type { { i64, i64 } }

@1 = private unnamed_addr constant %struct.ident_t { i32 0, i32 514, i32 0, i32 22, ptr @0 }, align 8
@_ZTISt9exception = external constant ptr

; Function Attrs: mustprogress nounwind uwtable
define linkonce_odr noundef zeroext i1 @_ZNKSt14_Function_base8_M_emptyEv(ptr noundef nonnull align 8 dereferenceable(24) %0) #0 comdat align 2 {
  %2 = alloca ptr, align 8
  store ptr %0, ptr %2, align 8, !tbaa !342
  %3 = load ptr, ptr %2, align 8
  %4 = getelementptr inbounds nuw %"class.std::_Function_base", ptr %3, i32 0, i32 1
  %5 = load ptr, ptr %4, align 8, !tbaa !341
  %6 = icmp ne ptr %5, null
  %7 = xor i1 %6, true
  ret i1 %7
}

; Function Attrs: mustprogress uwtable
define linkonce_odr void @_ZNKSt8functionIFviiiEEclEiii(ptr noundef nonnull align 8 dereferenceable(32) %0, i32 noundef %1, i32 noundef %2, i32 noundef %3) #1 comdat align 2 {
  %5 = alloca ptr, align 8
  %6 = alloca i32, align 4
  %7 = alloca i32, align 4
  %8 = alloca i32, align 4
  store ptr %0, ptr %5, align 8, !tbaa !336
  store i32 %1, ptr %6, align 4, !tbaa !13
  store i32 %2, ptr %7, align 4, !tbaa !13
  store i32 %3, ptr %8, align 4, !tbaa !13
  %9 = load ptr, ptr %5, align 8
  %10 = call noundef zeroext i1 @_ZNKSt14_Function_base8_M_emptyEv(ptr noundef nonnull align 8 dereferenceable(24) %9)
  br i1 %10, label %11, label %12

11:                                               ; preds = %4
  call void @_ZSt25__throw_bad_function_callv() #34
  unreachable

12:                                               ; preds = %4
  %13 = getelementptr inbounds nuw %"class.std::function", ptr %9, i32 0, i32 1
  %14 = load ptr, ptr %13, align 8, !tbaa !338
  %15 = getelementptr inbounds nuw %"class.std::_Function_base", ptr %9, i32 0, i32 0
  call void %14(ptr noundef nonnull align 8 dereferenceable(16) %15, ptr noundef nonnull align 4 dereferenceable(4) %6, ptr noundef nonnull align 4 dereferenceable(4) %7, ptr noundef nonnull align 4 dereferenceable(4) %8)
  ret void
}

; Function Attrs: inlinehint mustprogress nounwind uwtable
define linkonce_odr noundef nonnull align 4 dereferenceable(4) ptr @_ZSt3minIiERKT_S2_S2_(ptr noundef nonnull align 4 dereferenceable(4) %0, ptr noundef nonnull align 4 dereferenceable(4) %1) #3 comdat {
  %3 = alloca ptr, align 8
  %4 = alloca ptr, align 8
  %5 = alloca ptr, align 8
  store ptr %0, ptr %4, align 8, !tbaa !97
  store ptr %1, ptr %5, align 8, !tbaa !97
  %6 = load ptr, ptr %5, align 8, !tbaa !97
  %7 = load i32, ptr %6, align 4, !tbaa !13
  %8 = load ptr, ptr %4, align 8, !tbaa !97
  %9 = load i32, ptr %8, align 4, !tbaa !13
  %10 = icmp slt i32 %7, %9
  br i1 %10, label %11, label %13

11:                                               ; preds = %2
  %12 = load ptr, ptr %5, align 8, !tbaa !97
  store ptr %12, ptr %3, align 8
  br label %15

13:                                               ; preds = %2
  %14 = load ptr, ptr %4, align 8, !tbaa !97
  store ptr %14, ptr %3, align 8
  br label %15

15:                                               ; preds = %13, %11
  %16 = load ptr, ptr %3, align 8
  ret ptr %16
}

; Function Attrs: alwaysinline norecurse nounwind uwtable
define internal void @_ZN8LightGBM9Threading3ForIiEEiT_S2_S2_RKSt8functionIFviS2_S2_EE.omp_outlined(ptr noalias noundef %0, ptr noalias noundef %1, ptr noundef nonnull align 4 dereferenceable(4) %2, ptr noundef nonnull align 4 dereferenceable(4) %3, ptr noundef nonnull align 4 dereferenceable(4) %4, ptr noundef nonnull align 4 dereferenceable(4) %5, ptr noundef nonnull align 8 dereferenceable(32) %6, ptr noundef nonnull align 8 dereferenceable(48) %7) #18 personality ptr @__gxx_personality_v0 {
  %9 = alloca ptr, align 8
  %10 = alloca ptr, align 8
  %11 = alloca ptr, align 8
  %12 = alloca ptr, align 8
  %13 = alloca ptr, align 8
  %14 = alloca ptr, align 8
  %15 = alloca ptr, align 8
  %16 = alloca ptr, align 8
  %17 = alloca ptr, align 8
  %18 = alloca i32, align 4
  %19 = alloca i32, align 4
  %20 = alloca i32, align 4
  %21 = alloca i32, align 4
  %22 = alloca i32, align 4
  %23 = alloca i32, align 4
  %24 = alloca i32, align 4
  %25 = alloca i32, align 4
  %26 = alloca i32, align 4
  %27 = alloca i32, align 4
  %28 = alloca i32, align 4
  %29 = alloca i32, align 4
  %30 = alloca ptr, align 8
  %31 = alloca i32, align 4
  %32 = alloca ptr, align 8
  store ptr %0, ptr %9, align 8, !tbaa !97
  store ptr %1, ptr %10, align 8, !tbaa !97
  store ptr %2, ptr %11, align 8, !tbaa !97
  store ptr %3, ptr %12, align 8, !tbaa !97
  store ptr %4, ptr %13, align 8, !tbaa !97
  store ptr %5, ptr %14, align 8, !tbaa !97
  store ptr %6, ptr %15, align 8, !tbaa !336
  store ptr %7, ptr %16, align 8, !tbaa !406
  %33 = load ptr, ptr %11, align 8, !tbaa !97
  %34 = load ptr, ptr %12, align 8, !tbaa !97
  %35 = load ptr, ptr %13, align 8, !tbaa !97
  %36 = load ptr, ptr %14, align 8, !tbaa !97
  %37 = load ptr, ptr %15, align 8, !tbaa !336
  %38 = load ptr, ptr %16, align 8, !tbaa !406
  store ptr %37, ptr %17, align 8
  call void @llvm.lifetime.start.p0(i64 4, ptr %18) #7
  call void @llvm.lifetime.start.p0(i64 4, ptr %19) #7
  %39 = load i32, ptr %33, align 4, !tbaa !13
  store i32 %39, ptr %19, align 4, !tbaa !13
  call void @llvm.lifetime.start.p0(i64 4, ptr %20) #7
  %40 = load i32, ptr %19, align 4, !tbaa !13
  %41 = sub nsw i32 %40, 0
  %42 = sdiv i32 %41, 1
  %43 = sub nsw i32 %42, 1
  store i32 %43, ptr %20, align 4, !tbaa !13
  call void @llvm.lifetime.start.p0(i64 4, ptr %21) #7
  store i32 0, ptr %21, align 4, !tbaa !13
  call void @llvm.lifetime.end.p0(i64 4, ptr %21) #7
  %44 = load i32, ptr %19, align 4, !tbaa !13
  %45 = icmp slt i32 0, %44
  br i1 %45, label %46, label %141

46:                                               ; preds = %8
  call void @llvm.lifetime.start.p0(i64 4, ptr %22) #7
  store i32 0, ptr %22, align 4, !tbaa !13
  call void @llvm.lifetime.start.p0(i64 4, ptr %23) #7
  %47 = load i32, ptr %20, align 4, !tbaa !13
  store i32 %47, ptr %23, align 4, !tbaa !13
  call void @llvm.lifetime.start.p0(i64 4, ptr %24) #7
  store i32 1, ptr %24, align 4, !tbaa !13
  call void @llvm.lifetime.start.p0(i64 4, ptr %25) #7
  store i32 0, ptr %25, align 4, !tbaa !13
  call void @llvm.lifetime.start.p0(i64 4, ptr %26) #7
  %48 = load ptr, ptr %9, align 8
  %49 = load i32, ptr %48, align 4, !tbaa !13
  call void @__kmpc_for_static_init_4(ptr @1, i32 %49, i32 33, ptr %25, ptr %22, ptr %23, ptr %24, i32 1, i32 1)
  br label %50

50:                                               ; preds = %131, %46
  %51 = load i32, ptr %23, align 4, !tbaa !13
  %52 = load i32, ptr %20, align 4, !tbaa !13
  %53 = icmp sgt i32 %51, %52
  br i1 %53, label %54, label %56

54:                                               ; preds = %50
  %55 = load i32, ptr %20, align 4, !tbaa !13
  br label %58

56:                                               ; preds = %50
  %57 = load i32, ptr %23, align 4, !tbaa !13
  br label %58

58:                                               ; preds = %56, %54
  %59 = phi i32 [ %55, %54 ], [ %57, %56 ]
  store i32 %59, ptr %23, align 4, !tbaa !13
  %60 = load i32, ptr %22, align 4, !tbaa !13
  store i32 %60, ptr %18, align 4, !tbaa !13
  %61 = load i32, ptr %18, align 4, !tbaa !13
  %62 = load i32, ptr %23, align 4, !tbaa !13
  %63 = icmp sle i32 %61, %62
  br i1 %63, label %65, label %64

64:                                               ; preds = %58
  br label %138

65:                                               ; preds = %58
  br label %66

66:                                               ; preds = %122, %65
  %67 = load i32, ptr %18, align 4, !tbaa !13
  %68 = load i32, ptr %23, align 4, !tbaa !13
  %69 = icmp sle i32 %67, %68
  br i1 %69, label %71, label %70

70:                                               ; preds = %66
  br label %130

71:                                               ; preds = %66
  %72 = load i32, ptr %18, align 4, !tbaa !13
  %73 = mul nsw i32 %72, 1
  %74 = add nsw i32 0, %73
  store i32 %74, ptr %26, align 4, !tbaa !13
  call void @llvm.lifetime.start.p0(i64 4, ptr %27) #7
  %75 = load i32, ptr %34, align 4, !tbaa !13
  %76 = load i32, ptr %35, align 4, !tbaa !13
  %77 = load i32, ptr %26, align 4, !tbaa !13
  %78 = mul nsw i32 %76, %77
  %79 = add nsw i32 %75, %78
  store i32 %79, ptr %27, align 4, !tbaa !13
  call void @llvm.lifetime.start.p0(i64 4, ptr %28) #7
  call void @llvm.lifetime.start.p0(i64 4, ptr %29) #7
  %80 = load i32, ptr %27, align 4, !tbaa !13
  %81 = load i32, ptr %35, align 4, !tbaa !13
  %82 = add nsw i32 %80, %81
  store i32 %82, ptr %29, align 4, !tbaa !13
  %83 = invoke noundef nonnull align 4 dereferenceable(4) ptr @_ZSt3minIiERKT_S2_S2_(ptr noundef nonnull align 4 dereferenceable(4) %36, ptr noundef nonnull align 4 dereferenceable(4) %29)
          to label %84 unwind label %95

84:                                               ; preds = %71
  %85 = load i32, ptr %83, align 4, !tbaa !13
  call void @llvm.lifetime.end.p0(i64 4, ptr %29) #7
  store i32 %85, ptr %28, align 4, !tbaa !13
  %86 = load i32, ptr %27, align 4, !tbaa !13
  %87 = load i32, ptr %28, align 4, !tbaa !13
  %88 = icmp slt i32 %86, %87
  br i1 %88, label %89, label %103

89:                                               ; preds = %84
  %90 = load ptr, ptr %17, align 8, !tbaa !336
  %91 = load i32, ptr %26, align 4, !tbaa !13
  %92 = load i32, ptr %27, align 4, !tbaa !13
  %93 = load i32, ptr %28, align 4, !tbaa !13
  invoke void @_ZNKSt8functionIFviiiEEclEiii(ptr noundef nonnull align 8 dereferenceable(32) %90, i32 noundef %91, i32 noundef %92, i32 noundef %93)
          to label %94 unwind label %99

94:                                               ; preds = %89
  br label %103

95:                                               ; preds = %71
  %96 = landingpad { ptr, i32 }
          catch ptr @_ZTISt9exception
          catch ptr null
  %97 = extractvalue { ptr, i32 } %96, 0
  store ptr %97, ptr %30, align 8
  %98 = extractvalue { ptr, i32 } %96, 1
  store i32 %98, ptr %31, align 4
  call void @llvm.lifetime.end.p0(i64 4, ptr %29) #7
  br label %104

99:                                               ; preds = %89
  %100 = landingpad { ptr, i32 }
          catch ptr @_ZTISt9exception
          catch ptr null
  %101 = extractvalue { ptr, i32 } %100, 0
  store ptr %101, ptr %30, align 8
  %102 = extractvalue { ptr, i32 } %100, 1
  store i32 %102, ptr %31, align 4
  br label %104

103:                                              ; preds = %94, %84
  call void @llvm.lifetime.end.p0(i64 4, ptr %28) #7
  call void @llvm.lifetime.end.p0(i64 4, ptr %27) #7
  br label %120

104:                                              ; preds = %99, %95
  call void @llvm.lifetime.end.p0(i64 4, ptr %28) #7
  call void @llvm.lifetime.end.p0(i64 4, ptr %27) #7
  br label %105

105:                                              ; preds = %104
  %106 = load i32, ptr %31, align 4
  %107 = call i32 @llvm.eh.typeid.for.p0(ptr @_ZTISt9exception) #7
  %108 = icmp eq i32 %106, %107
  br i1 %108, label %109, label %125

109:                                              ; preds = %105
  call void @llvm.lifetime.start.p0(i64 8, ptr %32) #7
  %110 = load ptr, ptr %30, align 8
  %111 = call ptr @__cxa_begin_catch(ptr %110) #7
  store ptr %111, ptr %32, align 8
  %112 = load ptr, ptr %32, align 8, !tbaa !408
  %113 = load ptr, ptr %112, align 8, !tbaa !9
  %114 = getelementptr inbounds ptr, ptr %113, i64 2
  %115 = load ptr, ptr %114, align 8
  %116 = call noundef ptr %115(ptr noundef nonnull align 8 dereferenceable(8) %112) #7
  invoke void (ptr, ...) @_ZN8LightGBM3Log7WarningEPKcz(ptr noundef %116)
          to label %117 unwind label %142

117:                                              ; preds = %109
  invoke void @_ZN21ThreadExceptionHelper16CaptureExceptionEv(ptr noundef nonnull align 8 dereferenceable(48) %38)
          to label %118 unwind label %142

118:                                              ; preds = %117
  invoke void @__cxa_end_catch()
          to label %119 unwind label %142

119:                                              ; preds = %118
  call void @llvm.lifetime.end.p0(i64 8, ptr %32) #7
  br label %120

120:                                              ; preds = %119, %129, %103
  br label %121

121:                                              ; preds = %120
  br label %122

122:                                              ; preds = %121
  %123 = load i32, ptr %18, align 4, !tbaa !13
  %124 = add nsw i32 %123, 1
  store i32 %124, ptr %18, align 4, !tbaa !13
  br label %66

125:                                              ; preds = %105
  %126 = load ptr, ptr %30, align 8
  %127 = call ptr @__cxa_begin_catch(ptr %126) #7
  invoke void @_ZN21ThreadExceptionHelper16CaptureExceptionEv(ptr noundef nonnull align 8 dereferenceable(48) %38)
          to label %128 unwind label %142

128:                                              ; preds = %125
  invoke void @__cxa_end_catch()
          to label %129 unwind label %142

129:                                              ; preds = %128
  br label %120

130:                                              ; preds = %70
  br label %131

131:                                              ; preds = %130
  %132 = load i32, ptr %22, align 4, !tbaa !13
  %133 = load i32, ptr %24, align 4, !tbaa !13
  %134 = add nsw i32 %132, %133
  store i32 %134, ptr %22, align 4, !tbaa !13
  %135 = load i32, ptr %23, align 4, !tbaa !13
  %136 = load i32, ptr %24, align 4, !tbaa !13
  %137 = add nsw i32 %135, %136
  store i32 %137, ptr %23, align 4, !tbaa !13
  br label %50

138:                                              ; preds = %64
  %139 = load ptr, ptr %9, align 8
  %140 = load i32, ptr %139, align 4, !tbaa !13
  call void @__kmpc_for_static_fini(ptr @1, i32 %140)
  call void @llvm.lifetime.end.p0(i64 4, ptr %26) #7
  call void @llvm.lifetime.end.p0(i64 4, ptr %25) #7
  call void @llvm.lifetime.end.p0(i64 4, ptr %24) #7
  call void @llvm.lifetime.end.p0(i64 4, ptr %23) #7
  call void @llvm.lifetime.end.p0(i64 4, ptr %22) #7
  br label %141

141:                                              ; preds = %138, %8
  call void @llvm.lifetime.end.p0(i64 4, ptr %20) #7
  call void @llvm.lifetime.end.p0(i64 4, ptr %19) #7
  call void @llvm.lifetime.end.p0(i64 4, ptr %18) #7
  ret void

142:                                              ; preds = %118, %117, %109, %128, %125
  %143 = landingpad { ptr, i32 }
          catch ptr null
  %144 = extractvalue { ptr, i32 } %143, 0
  call void @__clang_call_terminate(ptr %144) #33
  unreachable
}